target datalayout = "e-m:e-p270:32:32-p271:32:32-p272:64:64-i64:64-i128:128-f80:128-n8:16:32:64-S128"
target triple = "x86_64-pc-linux-gnu"

%struct.AVTXContext = type { i32, i32, ptr, ptr, ptr, ptr, [4 x ptr], i32, [4 x ptr], ptr, i32, i64, i32, float, double, ptr }

; Function Attrs: cold nounwind optsize uwtable
define internal i32 @ff_tx_dct_init_float_c(ptr noundef %0, ptr noundef %1, i64 noundef %2, ptr noundef %3, i32 noundef %4, i32 noundef %5, ptr noundef %6) #0 {
  %8 = alloca i32, align 4
  %9 = alloca ptr, align 8
  %10 = alloca ptr, align 8
  %11 = alloca i64, align 8
  %12 = alloca ptr, align 8
  %13 = alloca i32, align 4
  %14 = alloca i32, align 4
  %15 = alloca ptr, align 8
  %16 = alloca i32, align 4
  %17 = alloca double, align 8
  %18 = alloca ptr, align 8
  %19 = alloca float, align 4
  %20 = alloca i32, align 4
  %21 = alloca i32, align 4
  %22 = alloca i32, align 4
  %23 = alloca i32, align 4
  store ptr %0, ptr %9, align 8, !tbaa !17
  store ptr %1, ptr %10, align 8, !tbaa !61
  store i64 %2, ptr %11, align 8, !tbaa !30
  store ptr %3, ptr %12, align 8, !tbaa !62
  store i32 %4, ptr %13, align 4, !tbaa !4
  store i32 %5, ptr %14, align 4, !tbaa !4
  store ptr %6, ptr %15, align 8, !tbaa !8
  call void @llvm.lifetime.start.p0(i64 4, ptr %16) #10
  call void @llvm.lifetime.start.p0(i64 8, ptr %17) #10
  call void @llvm.lifetime.start.p0(i64 8, ptr %18) #10
  call void @llvm.lifetime.start.p0(i64 4, ptr %19) #10
  %24 = load ptr, ptr %15, align 8, !tbaa !8
  %25 = load float, ptr %24, align 4, !tbaa !36
  store float %25, ptr %19, align 4, !tbaa !36
  %26 = load i32, ptr %14, align 4, !tbaa !4
  %27 = icmp ne i32 %26, 0
  br i1 %27, label %28, label %39

28:                                               ; preds = %7
  %29 = load i32, ptr %13, align 4, !tbaa !4
  %30 = mul nsw i32 %29, 2
  store i32 %30, ptr %13, align 4, !tbaa !4
  %31 = load ptr, ptr %9, align 8, !tbaa !17
  %32 = getelementptr inbounds nuw %struct.AVTXContext, ptr %31, i32 0, i32 0
  %33 = load i32, ptr %32, align 8, !tbaa !21
  %34 = mul nsw i32 %33, 2
  store i32 %34, ptr %32, align 8, !tbaa !21
  %35 = load float, ptr %19, align 4, !tbaa !36
  %36 = fpext nsz float %35 to double
  %37 = fmul nsz double %36, 5.000000e-01
  %38 = fptrunc nsz double %37 to float
  store float %38, ptr %19, align 4, !tbaa !36
  br label %39

39:                                               ; preds = %28, %7
  %40 = load ptr, ptr %9, align 8, !tbaa !17
  %41 = load i64, ptr %11, align 8, !tbaa !30
  %42 = load i32, ptr %13, align 4, !tbaa !4
  %43 = load i32, ptr %14, align 4, !tbaa !4
  %44 = call i32 @ff_tx_init_subtx(ptr noundef %40, i32 noundef 6, i64 noundef %41, ptr noundef null, i32 noundef %42, i32 noundef %43, ptr noundef %19)
  store i32 %44, ptr %16, align 4, !tbaa !4
  %45 = icmp ne i32 %44, 0
  br i1 %45, label %46, label %48

46:                                               ; preds = %39
  %47 = load i32, ptr %16, align 4, !tbaa !4
  store i32 %47, ptr %8, align 4
  store i32 1, ptr %20, align 4
  br label %155

48:                                               ; preds = %39
  %49 = load i32, ptr %13, align 4, !tbaa !4
  %50 = sdiv i32 %49, 2
  %51 = mul nsw i32 %50, 3
  %52 = sext i32 %51 to i64
  %53 = mul i64 %52, 4
  %54 = call noalias ptr @av_malloc(i64 noundef %53)
  %55 = load ptr, ptr %9, align 8, !tbaa !17
  %56 = getelementptr inbounds nuw %struct.AVTXContext, ptr %55, i32 0, i32 3
  store ptr %54, ptr %56, align 8, !tbaa !31
  %57 = load ptr, ptr %9, align 8, !tbaa !17
  %58 = getelementptr inbounds nuw %struct.AVTXContext, ptr %57, i32 0, i32 3
  %59 = load ptr, ptr %58, align 8, !tbaa !31
  %60 = icmp ne ptr %59, null
  br i1 %60, label %62, label %61

61:                                               ; preds = %48
  store i32 -12, ptr %8, align 4
  store i32 1, ptr %20, align 4
  br label %155

62:                                               ; preds = %48
  %63 = load ptr, ptr %9, align 8, !tbaa !17
  %64 = getelementptr inbounds nuw %struct.AVTXContext, ptr %63, i32 0, i32 3
  %65 = load ptr, ptr %64, align 8, !tbaa !31
  store ptr %65, ptr %18, align 8, !tbaa !39
  %66 = load i32, ptr %13, align 4, !tbaa !4
  %67 = mul nsw i32 %66, 2
  %68 = sitofp i32 %67 to double
  %69 = fdiv nsz double 0x400921FB54442D18, %68
  store double %69, ptr %17, align 8, !tbaa !29
  call void @llvm.lifetime.start.p0(i64 4, ptr %21) #10
  store i32 0, ptr %21, align 4, !tbaa !4
  br label %70

70:                                               ; preds = %93, %62
  %71 = load i32, ptr %21, align 4, !tbaa !4
  %72 = load i32, ptr %13, align 4, !tbaa !4
  %73 = icmp slt i32 %71, %72
  br i1 %73, label %75, label %74

74:                                               ; preds = %70
  store i32 2, ptr %20, align 4
  call void @llvm.lifetime.end.p0(i64 4, ptr %21) #10
  br label %96

75:                                               ; preds = %70
  %76 = load i32, ptr %21, align 4, !tbaa !4
  %77 = sitofp i32 %76 to double
  %78 = load double, ptr %17, align 8, !tbaa !29
  %79 = fmul nsz double %77, %78
  %80 = call nsz double @llvm.cos.f64(double %79)
  %81 = load i32, ptr %14, align 4, !tbaa !4
  %82 = icmp ne i32 %81, 0
  %83 = xor i1 %82, true
  %84 = zext i1 %83 to i32
  %85 = add nsw i32 %84, 1
  %86 = sitofp i32 %85 to double
  %87 = fmul nsz double %80, %86
  %88 = fptrunc nsz double %87 to float
  %89 = load ptr, ptr %18, align 8, !tbaa !39
  %90 = load i32, ptr %21, align 4, !tbaa !4
  %91 = sext i32 %90 to i64
  %92 = getelementptr inbounds float, ptr %89, i64 %91
  store float %88, ptr %92, align 4, !tbaa !36
  br label %93

93:                                               ; preds = %75
  %94 = load i32, ptr %21, align 4, !tbaa !4
  %95 = add nsw i32 %94, 1
  store i32 %95, ptr %21, align 4, !tbaa !4
  br label %70, !llvm.loop !162

96:                                               ; preds = %74
  %97 = load i32, ptr %14, align 4, !tbaa !4
  %98 = icmp ne i32 %97, 0
  br i1 %98, label %99, label %126

99:                                               ; preds = %96
  call void @llvm.lifetime.start.p0(i64 4, ptr %22) #10
  store i32 0, ptr %22, align 4, !tbaa !4
  br label %100

100:                                              ; preds = %122, %99
  %101 = load i32, ptr %22, align 4, !tbaa !4
  %102 = load i32, ptr %13, align 4, !tbaa !4
  %103 = sdiv i32 %102, 2
  %104 = icmp slt i32 %101, %103
  br i1 %104, label %106, label %105

105:                                              ; preds = %100
  store i32 5, ptr %20, align 4
  call void @llvm.lifetime.end.p0(i64 4, ptr %22) #10
  br label %125

106:                                              ; preds = %100
  %107 = load i32, ptr %22, align 4, !tbaa !4
  %108 = mul nsw i32 2, %107
  %109 = add nsw i32 %108, 1
  %110 = sitofp i32 %109 to double
  %111 = load double, ptr %17, align 8, !tbaa !29
  %112 = fmul nsz double %110, %111
  %113 = call nsz double @llvm.sin.f64(double %112)
  %114 = fdiv nsz double 5.000000e-01, %113
  %115 = fptrunc nsz double %114 to float
  %116 = load ptr, ptr %18, align 8, !tbaa !39
  %117 = load i32, ptr %13, align 4, !tbaa !4
  %118 = load i32, ptr %22, align 4, !tbaa !4
  %119 = add nsw i32 %117, %118
  %120 = sext i32 %119 to i64
  %121 = getelementptr inbounds float, ptr %116, i64 %120
  store float %115, ptr %121, align 4, !tbaa !36
  br label %122

122:                                              ; preds = %106
  %123 = load i32, ptr %22, align 4, !tbaa !4
  %124 = add nsw i32 %123, 1
  store i32 %124, ptr %22, align 4, !tbaa !4
  br label %100, !llvm.loop !163

125:                                              ; preds = %105
  br label %154

126:                                              ; preds = %96
  call void @llvm.lifetime.start.p0(i64 4, ptr %23) #10
  store i32 0, ptr %23, align 4, !tbaa !4
  br label %127

127:                                              ; preds = %150, %126
  %128 = load i32, ptr %23, align 4, !tbaa !4
  %129 = load i32, ptr %13, align 4, !tbaa !4
  %130 = sdiv i32 %129, 2
  %131 = icmp slt i32 %128, %130
  br i1 %131, label %133, label %132

132:                                              ; preds = %127
  store i32 8, ptr %20, align 4
  call void @llvm.lifetime.end.p0(i64 4, ptr %23) #10
  br label %153

133:                                              ; preds = %127
  %134 = load i32, ptr %13, align 4, !tbaa !4
  %135 = load i32, ptr %23, align 4, !tbaa !4
  %136 = mul nsw i32 2, %135
  %137 = sub nsw i32 %134, %136
  %138 = sub nsw i32 %137, 1
  %139 = sitofp i32 %138 to double
  %140 = load double, ptr %17, align 8, !tbaa !29
  %141 = fmul nsz double %139, %140
  %142 = call nsz double @llvm.cos.f64(double %141)
  %143 = fptrunc nsz double %142 to float
  %144 = load ptr, ptr %18, align 8, !tbaa !39
  %145 = load i32, ptr %13, align 4, !tbaa !4
  %146 = load i32, ptr %23, align 4, !tbaa !4
  %147 = add nsw i32 %145, %146
  %148 = sext i32 %147 to i64
  %149 = getelementptr inbounds float, ptr %144, i64 %148
  store float %143, ptr %149, align 4, !tbaa !36
  br label %150

150:                                              ; preds = %133
  %151 = load i32, ptr %23, align 4, !tbaa !4
  %152 = add nsw i32 %151, 1
  store i32 %152, ptr %23, align 4, !tbaa !4
  br label %127, !llvm.loop !164

153:                                              ; preds = %132
  br label %154

154:                                              ; preds = %153, %125
  store i32 0, ptr %8, align 4
  store i32 1, ptr %20, align 4
  br label %155

155:                                              ; preds = %154, %61, %46
  call void @llvm.lifetime.end.p0(i64 4, ptr %19) #10
  call void @llvm.lifetime.end.p0(i64 8, ptr %18) #10
  call void @llvm.lifetime.end.p0(i64 8, ptr %17) #10
  call void @llvm.lifetime.end.p0(i64 4, ptr %16) #10
  %156 = load i32, ptr %8, align 4
  ret i32 %156
}