; Function Attrs: cold nounwind optsize uwtable
define internal i32 @ff_tx_dct_init_float_c(ptr noundef %0, ptr readnone captures(none) %1, i64 noundef %2, ptr readnone captures(none) %3, i32 noundef %4, i32 noundef %5, ptr noundef readonly captures(none) %6) #0 {
  %8 = alloca float, align 4
  call void @llvm.lifetime.start.p0(i64 4, ptr nonnull %8) #16
  %9 = load float, ptr %6, align 4, !tbaa !27
  store float %9, ptr %8, align 4, !tbaa !27
  %.not = icmp eq i32 %5, 0
  br i1 %.not, label %15, label %10

10:                                               ; preds = %7
  %11 = shl nsw i32 %4, 1
  %12 = load i32, ptr %0, align 8, !tbaa !16
  %13 = shl nsw i32 %12, 1
  store i32 %13, ptr %0, align 8, !tbaa !16
  %14 = fmul nsz float %9, 5.000000e-01
  store float %14, ptr %8, align 4, !tbaa !27
  br label %15

15:                                               ; preds = %10, %7
  %.043 = phi i32 [ %11, %10 ], [ %4, %7 ]
  %16 = call i32 @ff_tx_init_subtx(ptr noundef %0, i32 noundef 6, i64 noundef %2, ptr noundef null, i32 noundef %.043, i32 noundef %5, ptr noundef nonnull %8) #16
  %.not46 = icmp eq i32 %16, 0
  br i1 %.not46, label %17, label %.loopexit

17:                                               ; preds = %15
  %18 = sdiv i32 %.043, 2
  %19 = mul nsw i32 %18, 3
  %20 = sext i32 %19 to i64
  %21 = shl nsw i64 %20, 2
  %22 = call noalias ptr @av_malloc(i64 noundef %21) #16
  %23 = getelementptr inbounds nuw i8, ptr %0, i64 16
  store ptr %22, ptr %23, align 8, !tbaa !26
  %.not47 = icmp eq ptr %22, null
  br i1 %.not47, label %.loopexit, label %24

24:                                               ; preds = %17
  %25 = shl nsw i32 %.043, 1
  %26 = sitofp i32 %25 to double
  %27 = fdiv nsz double 0x400921FB54442D18, %26
  %28 = icmp sgt i32 %.043, 0
  br i1 %28, label %.lr.ph, label %._crit_edge

.lr.ph:                                           ; preds = %24
  %29 = select i1 %.not, i32 2, i32 1
  %30 = uitofp nneg i32 %29 to double
  %wide.trip.count = zext nneg i32 %.043 to i64
  br label %34

._crit_edge:                                      ; preds = %34, %24
  %31 = icmp sgt i32 %.043, 1
  br i1 %.not, label %.preheader, label %.preheader48

.preheader48:                                     ; preds = %._crit_edge
  br i1 %31, label %.lr.ph52.preheader, label %.loopexit

.lr.ph52.preheader:                               ; preds = %.preheader48
  %32 = zext nneg i32 %.043 to i64
  %wide.trip.count60 = zext nneg i32 %18 to i64
  %invariant.gep = getelementptr inbounds nuw float, ptr %22, i64 %32
  br label %.lr.ph52

.preheader:                                       ; preds = %._crit_edge
  br i1 %31, label %.lr.ph54.preheader, label %.loopexit

.lr.ph54.preheader:                               ; preds = %.preheader
  %33 = zext nneg i32 %.043 to i64
  %wide.trip.count65 = zext nneg i32 %18 to i64
  %invariant.gep68 = getelementptr inbounds nuw float, ptr %22, i64 %33
  br label %.lr.ph54

34:                                               ; preds = %.lr.ph, %34
  %indvars.iv = phi i64 [ 0, %.lr.ph ], [ %indvars.iv.next, %34 ]
  %35 = trunc nuw nsw i64 %indvars.iv to i32
  %36 = uitofp nneg i32 %35 to double
  %37 = fmul nsz double %27, %36
  %38 = call nsz double @llvm.cos.f64(double %37)
  %39 = fmul nsz double %38, %30
  %40 = fptrunc nsz double %39 to float
  %41 = getelementptr inbounds nuw float, ptr %22, i64 %indvars.iv
  store float %40, ptr %41, align 4, !tbaa !27
  %indvars.iv.next = add nuw nsw i64 %indvars.iv, 1
  %exitcond.not = icmp eq i64 %indvars.iv.next, %wide.trip.count
  br i1 %exitcond.not, label %._crit_edge, label %34, !llvm.loop !151

.lr.ph52:                                         ; preds = %.lr.ph52.preheader, %.lr.ph52
  %indvars.iv57 = phi i64 [ 0, %.lr.ph52.preheader ], [ %indvars.iv.next58, %.lr.ph52 ]
  %indvars.iv57.tr = trunc i64 %indvars.iv57 to i32
  %42 = shl i32 %indvars.iv57.tr, 1
  %43 = or disjoint i32 %42, 1
  %44 = uitofp nneg i32 %43 to double
  %45 = fmul nsz double %27, %44
  %46 = call nsz double @llvm.sin.f64(double %45)
  %47 = fdiv nsz double 5.000000e-01, %46
  %48 = fptrunc nsz double %47 to float
  %gep = getelementptr inbounds nuw float, ptr %invariant.gep, i64 %indvars.iv57
  store float %48, ptr %gep, align 4, !tbaa !27
  %indvars.iv.next58 = add nuw nsw i64 %indvars.iv57, 1
  %exitcond61.not = icmp eq i64 %indvars.iv.next58, %wide.trip.count60
  br i1 %exitcond61.not, label %.loopexit, label %.lr.ph52, !llvm.loop !152

.lr.ph54:                                         ; preds = %.lr.ph54.preheader, %.lr.ph54
  %indvars.iv62 = phi i64 [ 0, %.lr.ph54.preheader ], [ %indvars.iv.next63, %.lr.ph54 ]
  %indvars.iv62.tr = trunc i64 %indvars.iv62 to i32
  %49 = shl i32 %indvars.iv62.tr, 1
  %50 = xor i32 %49, -1
  %51 = add nsw i32 %.043, %50
  %52 = sitofp i32 %51 to double
  %53 = fmul nsz double %27, %52
  %54 = call nsz double @llvm.cos.f64(double %53)
  %55 = fptrunc nsz double %54 to float
  %gep69 = getelementptr inbounds nuw float, ptr %invariant.gep68, i64 %indvars.iv62
  store float %55, ptr %gep69, align 4, !tbaa !27
  %indvars.iv.next63 = add nuw nsw i64 %indvars.iv62, 1
  %exitcond66.not = icmp eq i64 %indvars.iv.next63, %wide.trip.count65
  br i1 %exitcond66.not, label %.loopexit, label %.lr.ph54, !llvm.loop !153

.loopexit:                                        ; preds = %.lr.ph52, %.lr.ph54, %.preheader48, %.preheader, %17, %15
  %.042 = phi i32 [ %16, %15 ], [ -12, %17 ], [ 0, %.preheader ], [ 0, %.preheader48 ], [ 0, %.lr.ph54 ], [ 0, %.lr.ph52 ]
  call void @llvm.lifetime.end.p0(i64 4, ptr nonnull %8) #16
  ret i32 %.042
}